target datalayout = "e-m:e-p270:32:32-p271:32:32-p272:64:64-i64:64-i128:128-f80:128-n8:16:32:64-S128"
target triple = "x86_64-pc-linux-gnu"

%struct.Tas_Par_t_ = type { i32, i32, i32, i32, i32, i32, i32, float, i32, i32, i32, i32, i32, i32 }
%struct.Tas_Man_t_ = type { %struct.Tas_Par_t_, ptr, %struct.Tas_Que_t_, %struct.Tas_Que_t_, %struct.Tas_Que_t_, ptr, ptr, ptr, ptr, %struct.Tas_Sto_t_, ptr, ptr, i32, ptr, ptr, i32, i32, i32, i32, i32, i32, i32, i64, i64, i64, i64 }
%struct.Tas_Que_t_ = type { i32, i32, i32, ptr }
%struct.Tas_Sto_t_ = type { i32, i32, ptr }
%struct.Vec_Int_t_ = type { i32, i32, ptr }
%struct.Vec_Ptr_t_ = type { i32, i32, ptr }

; Function Attrs: inlinehint nounwind uwtable
define internal void @Vec_PtrFree(ptr noundef %0) #5 {
  %2 = alloca ptr, align 8
  store ptr %0, ptr %2, align 8, !tbaa !59
  %3 = load ptr, ptr %2, align 8, !tbaa !59
  %4 = getelementptr inbounds nuw %struct.Vec_Ptr_t_, ptr %3, i32 0, i32 2
  %5 = load ptr, ptr %4, align 8, !tbaa !63
  %6 = icmp ne ptr %5, null
  br i1 %6, label %7, label %13

7:                                                ; preds = %1
  %8 = load ptr, ptr %2, align 8, !tbaa !59
  %9 = getelementptr inbounds nuw %struct.Vec_Ptr_t_, ptr %8, i32 0, i32 2
  %10 = load ptr, ptr %9, align 8, !tbaa !63
  call void @free(ptr noundef %10) #11
  %11 = load ptr, ptr %2, align 8, !tbaa !59
  %12 = getelementptr inbounds nuw %struct.Vec_Ptr_t_, ptr %11, i32 0, i32 2
  store ptr null, ptr %12, align 8, !tbaa !63
  br label %14

13:                                               ; preds = %1
  br label %14

14:                                               ; preds = %13, %7
  %15 = load ptr, ptr %2, align 8, !tbaa !59
  %16 = icmp ne ptr %15, null
  br i1 %16, label %17, label %19

17:                                               ; preds = %14
  %18 = load ptr, ptr %2, align 8, !tbaa !59
  call void @free(ptr noundef %18) #11
  store ptr null, ptr %2, align 8, !tbaa !59
  br label %20

19:                                               ; preds = %14
  br label %20

20:                                               ; preds = %19, %17
  ret void
}

; Function Attrs: inlinehint nounwind uwtable
define internal void @Vec_IntFree(ptr noundef %0) #5 {
  %2 = alloca ptr, align 8
  store ptr %0, ptr %2, align 8, !tbaa !54
  %3 = load ptr, ptr %2, align 8, !tbaa !54
  %4 = getelementptr inbounds nuw %struct.Vec_Int_t_, ptr %3, i32 0, i32 2
  %5 = load ptr, ptr %4, align 8, !tbaa !58
  %6 = icmp ne ptr %5, null
  br i1 %6, label %7, label %13

7:                                                ; preds = %1
  %8 = load ptr, ptr %2, align 8, !tbaa !54
  %9 = getelementptr inbounds nuw %struct.Vec_Int_t_, ptr %8, i32 0, i32 2
  %10 = load ptr, ptr %9, align 8, !tbaa !58
  call void @free(ptr noundef %10) #11
  %11 = load ptr, ptr %2, align 8, !tbaa !54
  %12 = getelementptr inbounds nuw %struct.Vec_Int_t_, ptr %11, i32 0, i32 2
  store ptr null, ptr %12, align 8, !tbaa !58
  br label %14

13:                                               ; preds = %1
  br label %14

14:                                               ; preds = %13, %7
  %15 = load ptr, ptr %2, align 8, !tbaa !54
  %16 = icmp ne ptr %15, null
  br i1 %16, label %17, label %19

17:                                               ; preds = %14
  %18 = load ptr, ptr %2, align 8, !tbaa !54
  call void @free(ptr noundef %18) #11
  store ptr null, ptr %2, align 8, !tbaa !54
  br label %20

19:                                               ; preds = %14
  br label %20

20:                                               ; preds = %19, %17
  ret void
}

; Function Attrs: nounwind uwtable
define void @Tas_ManStop(ptr noundef %0) #0 {
  %2 = alloca ptr, align 8
  store ptr %0, ptr %2, align 8, !tbaa !23
  %3 = load ptr, ptr %2, align 8, !tbaa !23
  %4 = getelementptr inbounds nuw %struct.Tas_Man_t_, ptr %3, i32 0, i32 14
  %5 = load ptr, ptr %4, align 8, !tbaa !53
  call void @Vec_IntFree(ptr noundef %5)
  %6 = load ptr, ptr %2, align 8, !tbaa !23
  %7 = getelementptr inbounds nuw %struct.Tas_Man_t_, ptr %6, i32 0, i32 11
  %8 = load ptr, ptr %7, align 8, !tbaa !51
  call void @Vec_IntFree(ptr noundef %8)
  %9 = load ptr, ptr %2, align 8, !tbaa !23
  %10 = getelementptr inbounds nuw %struct.Tas_Man_t_, ptr %9, i32 0, i32 6
  %11 = load ptr, ptr %10, align 8, !tbaa !45
  call void @Vec_IntFree(ptr noundef %11)
  %12 = load ptr, ptr %2, align 8, !tbaa !23
  %13 = getelementptr inbounds nuw %struct.Tas_Man_t_, ptr %12, i32 0, i32 7
  %14 = load ptr, ptr %13, align 8, !tbaa !44
  call void @Vec_IntFree(ptr noundef %14)
  %15 = load ptr, ptr %2, align 8, !tbaa !23
  %16 = getelementptr inbounds nuw %struct.Tas_Man_t_, ptr %15, i32 0, i32 8
  %17 = load ptr, ptr %16, align 8, !tbaa !46
  call void @Vec_PtrFree(ptr noundef %17)
  %18 = load ptr, ptr %2, align 8, !tbaa !23
  %19 = getelementptr inbounds nuw %struct.Tas_Man_t_, ptr %18, i32 0, i32 13
  %20 = load ptr, ptr %19, align 8, !tbaa !52
  %21 = icmp ne ptr %20, null
  br i1 %21, label %22, label %28

22:                                               ; preds = %1
  %23 = load ptr, ptr %2, align 8, !tbaa !23
  %24 = getelementptr inbounds nuw %struct.Tas_Man_t_, ptr %23, i32 0, i32 13
  %25 = load ptr, ptr %24, align 8, !tbaa !52
  call void @free(ptr noundef %25) #11
  %26 = load ptr, ptr %2, align 8, !tbaa !23
  %27 = getelementptr inbounds nuw %struct.Tas_Man_t_, ptr %26, i32 0, i32 13
  store ptr null, ptr %27, align 8, !tbaa !52
  br label %29

28:                                               ; preds = %1
  br label %29

29:                                               ; preds = %28, %22
  %30 = load ptr, ptr %2, align 8, !tbaa !23
  %31 = getelementptr inbounds nuw %struct.Tas_Man_t_, ptr %30, i32 0, i32 10
  %32 = load ptr, ptr %31, align 8, !tbaa !50
  %33 = icmp ne ptr %32, null
  br i1 %33, label %34, label %40

34:                                               ; preds = %29
  %35 = load ptr, ptr %2, align 8, !tbaa !23
  %36 = getelementptr inbounds nuw %struct.Tas_Man_t_, ptr %35, i32 0, i32 10
  %37 = load ptr, ptr %36, align 8, !tbaa !50
  call void @free(ptr noundef %37) #11
  %38 = load ptr, ptr %2, align 8, !tbaa !23
  %39 = getelementptr inbounds nuw %struct.Tas_Man_t_, ptr %38, i32 0, i32 10
  store ptr null, ptr %39, align 8, !tbaa !50
  br label %41

40:                                               ; preds = %29
  br label %41

41:                                               ; preds = %40, %34
  %42 = load ptr, ptr %2, align 8, !tbaa !23
  %43 = getelementptr inbounds nuw %struct.Tas_Man_t_, ptr %42, i32 0, i32 9
  %44 = getelementptr inbounds nuw %struct.Tas_Sto_t_, ptr %43, i32 0, i32 2
  %45 = load ptr, ptr %44, align 8, !tbaa !49
  %46 = icmp ne ptr %45, null
  br i1 %46, label %47, label %55

47:                                               ; preds = %41
  %48 = load ptr, ptr %2, align 8, !tbaa !23
  %49 = getelementptr inbounds nuw %struct.Tas_Man_t_, ptr %48, i32 0, i32 9
  %50 = getelementptr inbounds nuw %struct.Tas_Sto_t_, ptr %49, i32 0, i32 2
  %51 = load ptr, ptr %50, align 8, !tbaa !49
  call void @free(ptr noundef %51) #11
  %52 = load ptr, ptr %2, align 8, !tbaa !23
  %53 = getelementptr inbounds nuw %struct.Tas_Man_t_, ptr %52, i32 0, i32 9
  %54 = getelementptr inbounds nuw %struct.Tas_Sto_t_, ptr %53, i32 0, i32 2
  store ptr null, ptr %54, align 8, !tbaa !49
  br label %56

55:                                               ; preds = %41
  br label %56

56:                                               ; preds = %55, %47
  %57 = load ptr, ptr %2, align 8, !tbaa !23
  %58 = getelementptr inbounds nuw %struct.Tas_Man_t_, ptr %57, i32 0, i32 4
  %59 = getelementptr inbounds nuw %struct.Tas_Que_t_, ptr %58, i32 0, i32 3
  %60 = load ptr, ptr %59, align 8, !tbaa !41
  %61 = icmp ne ptr %60, null
  br i1 %61, label %62, label %70

62:                                               ; preds = %56
  %63 = load ptr, ptr %2, align 8, !tbaa !23
  %64 = getelementptr inbounds nuw %struct.Tas_Man_t_, ptr %63, i32 0, i32 4
  %65 = getelementptr inbounds nuw %struct.Tas_Que_t_, ptr %64, i32 0, i32 3
  %66 = load ptr, ptr %65, align 8, !tbaa !41
  call void @free(ptr noundef %66) #11
  %67 = load ptr, ptr %2, align 8, !tbaa !23
  %68 = getelementptr inbounds nuw %struct.Tas_Man_t_, ptr %67, i32 0, i32 4
  %69 = getelementptr inbounds nuw %struct.Tas_Que_t_, ptr %68, i32 0, i32 3
  store ptr null, ptr %69, align 8, !tbaa !41
  br label %71

70:                                               ; preds = %56
  br label %71

71:                                               ; preds = %70, %62
  %72 = load ptr, ptr %2, align 8, !tbaa !23
  %73 = getelementptr inbounds nuw %struct.Tas_Man_t_, ptr %72, i32 0, i32 2
  %74 = getelementptr inbounds nuw %struct.Tas_Que_t_, ptr %73, i32 0, i32 3
  %75 = load ptr, ptr %74, align 8, !tbaa !39
  %76 = icmp ne ptr %75, null
  br i1 %76, label %77, label %85

77:                                               ; preds = %71
  %78 = load ptr, ptr %2, align 8, !tbaa !23
  %79 = getelementptr inbounds nuw %struct.Tas_Man_t_, ptr %78, i32 0, i32 2
  %80 = getelementptr inbounds nuw %struct.Tas_Que_t_, ptr %79, i32 0, i32 3
  %81 = load ptr, ptr %80, align 8, !tbaa !39
  call void @free(ptr noundef %81) #11
  %82 = load ptr, ptr %2, align 8, !tbaa !23
  %83 = getelementptr inbounds nuw %struct.Tas_Man_t_, ptr %82, i32 0, i32 2
  %84 = getelementptr inbounds nuw %struct.Tas_Que_t_, ptr %83, i32 0, i32 3
  store ptr null, ptr %84, align 8, !tbaa !39
  br label %86

85:                                               ; preds = %71
  br label %86

86:                                               ; preds = %85, %77
  %87 = load ptr, ptr %2, align 8, !tbaa !23
  %88 = getelementptr inbounds nuw %struct.Tas_Man_t_, ptr %87, i32 0, i32 3
  %89 = getelementptr inbounds nuw %struct.Tas_Que_t_, ptr %88, i32 0, i32 3
  %90 = load ptr, ptr %89, align 8, !tbaa !40
  %91 = icmp ne ptr %90, null
  br i1 %91, label %92, label %100

92:                                               ; preds = %86
  %93 = load ptr, ptr %2, align 8, !tbaa !23
  %94 = getelementptr inbounds nuw %struct.Tas_Man_t_, ptr %93, i32 0, i32 3
  %95 = getelementptr inbounds nuw %struct.Tas_Que_t_, ptr %94, i32 0, i32 3
  %96 = load ptr, ptr %95, align 8, !tbaa !40
  call void @free(ptr noundef %96) #11
  %97 = load ptr, ptr %2, align 8, !tbaa !23
  %98 = getelementptr inbounds nuw %struct.Tas_Man_t_, ptr %97, i32 0, i32 3
  %99 = getelementptr inbounds nuw %struct.Tas_Que_t_, ptr %98, i32 0, i32 3
  store ptr null, ptr %99, align 8, !tbaa !40
  br label %101

100:                                              ; preds = %86
  br label %101

101:                                              ; preds = %100, %92
  %102 = load ptr, ptr %2, align 8, !tbaa !23
  %103 = icmp ne ptr %102, null
  br i1 %103, label %104, label %106

104:                                              ; preds = %101
  %105 = load ptr, ptr %2, align 8, !tbaa !23
  call void @free(ptr noundef %105) #11
  store ptr null, ptr %2, align 8, !tbaa !23
  br label %107

106:                                              ; preds = %101
  br label %107

107:                                              ; preds = %106, %104
  ret void
}