; Function Attrs: mustprogress nounwind willreturn uwtable
define void @Tas_ManStop(ptr noundef captures(none) %0) local_unnamed_addr #6 {
  %2 = getelementptr inbounds nuw i8, ptr %0, i64 216
  %3 = load ptr, ptr %2, align 8, !tbaa !69
  %4 = getelementptr inbounds nuw i8, ptr %3, i64 8
  %5 = load ptr, ptr %4, align 8, !tbaa !41
  %.not.i = icmp eq ptr %5, null
  br i1 %.not.i, label %Vec_IntFree.exit, label %6

6:                                                ; preds = %1
  tail call void @free(ptr noundef nonnull %5) #25
  br label %Vec_IntFree.exit

Vec_IntFree.exit:                                 ; preds = %1, %6
  tail call void @free(ptr noundef nonnull %3) #25
  %7 = getelementptr inbounds nuw i8, ptr %0, i64 192
  %8 = load ptr, ptr %7, align 8, !tbaa !67
  %9 = getelementptr inbounds nuw i8, ptr %8, i64 8
  %10 = load ptr, ptr %9, align 8, !tbaa !41
  %.not.i37 = icmp eq ptr %10, null
  br i1 %.not.i37, label %Vec_IntFree.exit38, label %11

11:                                               ; preds = %Vec_IntFree.exit
  tail call void @free(ptr noundef nonnull %10) #25
  br label %Vec_IntFree.exit38

Vec_IntFree.exit38:                               ; preds = %Vec_IntFree.exit, %11
  tail call void @free(ptr noundef nonnull %8) #25
  %12 = getelementptr inbounds nuw i8, ptr %0, i64 144
  %13 = load ptr, ptr %12, align 8, !tbaa !43
  %14 = getelementptr inbounds nuw i8, ptr %13, i64 8
  %15 = load ptr, ptr %14, align 8, !tbaa !41
  %.not.i39 = icmp eq ptr %15, null
  br i1 %.not.i39, label %Vec_IntFree.exit40, label %16

16:                                               ; preds = %Vec_IntFree.exit38
  tail call void @free(ptr noundef nonnull %15) #25
  br label %Vec_IntFree.exit40

Vec_IntFree.exit40:                               ; preds = %Vec_IntFree.exit38, %16
  tail call void @free(ptr noundef nonnull %13) #25
  %17 = getelementptr inbounds nuw i8, ptr %0, i64 152
  %18 = load ptr, ptr %17, align 8, !tbaa !42
  %19 = getelementptr inbounds nuw i8, ptr %18, i64 8
  %20 = load ptr, ptr %19, align 8, !tbaa !41
  %.not.i41 = icmp eq ptr %20, null
  br i1 %.not.i41, label %Vec_IntFree.exit42, label %21

21:                                               ; preds = %Vec_IntFree.exit40
  tail call void @free(ptr noundef nonnull %20) #25
  br label %Vec_IntFree.exit42

Vec_IntFree.exit42:                               ; preds = %Vec_IntFree.exit40, %21
  tail call void @free(ptr noundef nonnull %18) #25
  %22 = getelementptr inbounds nuw i8, ptr %0, i64 160
  %23 = load ptr, ptr %22, align 8, !tbaa !48
  %24 = getelementptr inbounds nuw i8, ptr %23, i64 8
  %25 = load ptr, ptr %24, align 8, !tbaa !47
  %.not.i43 = icmp eq ptr %25, null
  br i1 %.not.i43, label %Vec_PtrFree.exit, label %26

26:                                               ; preds = %Vec_IntFree.exit42
  tail call void @free(ptr noundef nonnull %25) #25
  br label %Vec_PtrFree.exit

Vec_PtrFree.exit:                                 ; preds = %Vec_IntFree.exit42, %26
  tail call void @free(ptr noundef nonnull %23) #25
  %27 = getelementptr inbounds nuw i8, ptr %0, i64 208
  %28 = load ptr, ptr %27, align 8, !tbaa !68
  %.not = icmp eq ptr %28, null
  br i1 %.not, label %30, label %29

29:                                               ; preds = %Vec_PtrFree.exit
  tail call void @free(ptr noundef nonnull %28) #25
  store ptr null, ptr %27, align 8, !tbaa !68
  br label %30

30:                                               ; preds = %Vec_PtrFree.exit, %29
  %31 = getelementptr inbounds nuw i8, ptr %0, i64 184
  %32 = load ptr, ptr %31, align 8, !tbaa !66
  %.not31 = icmp eq ptr %32, null
  br i1 %.not31, label %34, label %33

33:                                               ; preds = %30
  tail call void @free(ptr noundef nonnull %32) #25
  store ptr null, ptr %31, align 8, !tbaa !66
  br label %34

34:                                               ; preds = %30, %33
  %35 = getelementptr inbounds nuw i8, ptr %0, i64 176
  %36 = load ptr, ptr %35, align 8, !tbaa !51
  %.not32 = icmp eq ptr %36, null
  br i1 %.not32, label %38, label %37

37:                                               ; preds = %34
  tail call void @free(ptr noundef nonnull %36) #25
  store ptr null, ptr %35, align 8, !tbaa !51
  br label %38

38:                                               ; preds = %34, %37
  %39 = getelementptr inbounds nuw i8, ptr %0, i64 128
  %40 = load ptr, ptr %39, align 8, !tbaa !35
  %.not33 = icmp eq ptr %40, null
  br i1 %.not33, label %42, label %41

41:                                               ; preds = %38
  tail call void @free(ptr noundef nonnull %40) #25
  store ptr null, ptr %39, align 8, !tbaa !35
  br label %42

42:                                               ; preds = %38, %41
  %43 = getelementptr inbounds nuw i8, ptr %0, i64 80
  %44 = load ptr, ptr %43, align 8, !tbaa !33
  %.not34 = icmp eq ptr %44, null
  br i1 %.not34, label %46, label %45

45:                                               ; preds = %42
  tail call void @free(ptr noundef nonnull %44) #25
  store ptr null, ptr %43, align 8, !tbaa !33
  br label %46

46:                                               ; preds = %42, %45
  %47 = getelementptr inbounds nuw i8, ptr %0, i64 104
  %48 = load ptr, ptr %47, align 8, !tbaa !34
  %.not35 = icmp eq ptr %48, null
  br i1 %.not35, label %50, label %49

49:                                               ; preds = %46
  tail call void @free(ptr noundef nonnull %48) #25
  br label %50

50:                                               ; preds = %46, %49
  tail call void @free(ptr noundef nonnull %0) #25
  ret void
}